target datalayout = "e-m:e-p270:32:32-p271:32:32-p272:64:64-i64:64-i128:128-f80:128-n8:16:32:64-S128"
target triple = "x86_64-unknown-linux-gnu"

%"struct.std::_Vector_base.48" = type { %"struct.std::_Vector_base<unsigned long, std::allocator<unsigned long>>::_Vector_impl" }
%"struct.std::_Vector_base<unsigned long, std::allocator<unsigned long>>::_Vector_impl" = type { %"struct.std::_Vector_base<unsigned long, std::allocator<unsigned long>>::_Vector_impl_data" }
%"struct.std::_Vector_base<unsigned long, std::allocator<unsigned long>>::_Vector_impl_data" = type { ptr, ptr, ptr }
%"class.__gnu_cxx::__normal_iterator.649" = type { ptr }

; Function Attrs: mustprogress nounwind uwtable
define linkonce_odr noundef nonnull align 8 dereferenceable(8) ptr @_ZNK9__gnu_cxx17__normal_iteratorIPKmSt6vectorImSaImEEE4baseEv(ptr noundef nonnull align 8 dereferenceable(8) %this) #1 comdat align 2 {
entry:
  %this.addr = alloca ptr, align 8
  store ptr %this, ptr %this.addr, align 8
  %this1 = load ptr, ptr %this.addr, align 8
  %_M_current = getelementptr inbounds %"class.__gnu_cxx::__normal_iterator.649", ptr %this1, i32 0, i32 0
  ret ptr %_M_current
}

; Function Attrs: mustprogress nounwind uwtable
define linkonce_odr void @_ZN9__gnu_cxx17__normal_iteratorIPKmSt6vectorImSaImEEEC2ERKS2_(ptr noundef nonnull align 8 dereferenceable(8) %this, ptr noundef nonnull align 8 dereferenceable(8) %__i) unnamed_addr #1 comdat align 2 {
entry:
  %this.addr = alloca ptr, align 8
  %__i.addr = alloca ptr, align 8
  store ptr %this, ptr %this.addr, align 8
  store ptr %__i, ptr %__i.addr, align 8
  %this1 = load ptr, ptr %this.addr, align 8
  %_M_current = getelementptr inbounds %"class.__gnu_cxx::__normal_iterator.649", ptr %this1, i32 0, i32 0
  %0 = load ptr, ptr %__i.addr, align 8
  %1 = load ptr, ptr %0, align 8
  store ptr %1, ptr %_M_current, align 8
  ret void
}

; Function Attrs: mustprogress nounwind uwtable
define linkonce_odr ptr @_ZN9__gnu_cxx17__normal_iteratorIPKmSt6vectorImSaImEEEppEi(ptr noundef nonnull align 8 dereferenceable(8) %this, i32 noundef %0) #1 comdat align 2 {
entry:
  %retval = alloca %"class.__gnu_cxx::__normal_iterator.649", align 8
  %this.addr = alloca ptr, align 8
  %.addr = alloca i32, align 4
  %ref.tmp = alloca ptr, align 8
  store ptr %this, ptr %this.addr, align 8
  store i32 %0, ptr %.addr, align 4
  %this1 = load ptr, ptr %this.addr, align 8
  %_M_current = getelementptr inbounds %"class.__gnu_cxx::__normal_iterator.649", ptr %this1, i32 0, i32 0
  %1 = load ptr, ptr %_M_current, align 8
  %incdec.ptr = getelementptr inbounds i64, ptr %1, i32 1
  store ptr %incdec.ptr, ptr %_M_current, align 8
  store ptr %1, ptr %ref.tmp, align 8
  call void @_ZN9__gnu_cxx17__normal_iteratorIPKmSt6vectorImSaImEEEC2ERKS2_(ptr noundef nonnull align 8 dereferenceable(8) %retval, ptr noundef nonnull align 8 dereferenceable(8) %ref.tmp) #3
  %coerce.dive = getelementptr inbounds %"class.__gnu_cxx::__normal_iterator.649", ptr %retval, i32 0, i32 0
  %2 = load ptr, ptr %coerce.dive, align 8
  ret ptr %2
}

; Function Attrs: mustprogress nounwind uwtable
define linkonce_odr noundef nonnull align 8 dereferenceable(8) ptr @_ZNK9__gnu_cxx17__normal_iteratorIPKmSt6vectorImSaImEEEdeEv(ptr noundef nonnull align 8 dereferenceable(8) %this) #1 comdat align 2 {
entry:
  %this.addr = alloca ptr, align 8
  store ptr %this, ptr %this.addr, align 8
  %this1 = load ptr, ptr %this.addr, align 8
  %_M_current = getelementptr inbounds %"class.__gnu_cxx::__normal_iterator.649", ptr %this1, i32 0, i32 0
  %0 = load ptr, ptr %_M_current, align 8
  ret ptr %0
}

; Function Attrs: mustprogress nounwind uwtable
define linkonce_odr noundef zeroext i1 @_ZN9__gnu_cxxneIPKmSt6vectorImSaImEEEEbRKNS_17__normal_iteratorIT_T0_EESB_(ptr noundef nonnull align 8 dereferenceable(8) %__lhs, ptr noundef nonnull align 8 dereferenceable(8) %__rhs) #1 comdat {
entry:
  %__lhs.addr = alloca ptr, align 8
  %__rhs.addr = alloca ptr, align 8
  store ptr %__lhs, ptr %__lhs.addr, align 8
  store ptr %__rhs, ptr %__rhs.addr, align 8
  %0 = load ptr, ptr %__lhs.addr, align 8
  %call = call noundef nonnull align 8 dereferenceable(8) ptr @_ZNK9__gnu_cxx17__normal_iteratorIPKmSt6vectorImSaImEEE4baseEv(ptr noundef nonnull align 8 dereferenceable(8) %0) #3
  %1 = load ptr, ptr %call, align 8
  %2 = load ptr, ptr %__rhs.addr, align 8
  %call1 = call noundef nonnull align 8 dereferenceable(8) ptr @_ZNK9__gnu_cxx17__normal_iteratorIPKmSt6vectorImSaImEEE4baseEv(ptr noundef nonnull align 8 dereferenceable(8) %2) #3
  %3 = load ptr, ptr %call1, align 8
  %cmp = icmp ne ptr %1, %3
  ret i1 %cmp
}

; Function Attrs: mustprogress nounwind uwtable
define linkonce_odr ptr @_ZNKSt6vectorImSaImEE3endEv(ptr noundef nonnull align 8 dereferenceable(24) %this) #1 comdat align 2 {
entry:
  %retval = alloca %"class.__gnu_cxx::__normal_iterator.649", align 8
  %this.addr = alloca ptr, align 8
  store ptr %this, ptr %this.addr, align 8
  %this1 = load ptr, ptr %this.addr, align 8
  %_M_impl = getelementptr inbounds %"struct.std::_Vector_base.48", ptr %this1, i32 0, i32 0
  %_M_finish = getelementptr inbounds %"struct.std::_Vector_base<unsigned long, std::allocator<unsigned long>>::_Vector_impl_data", ptr %_M_impl, i32 0, i32 1
  call void @_ZN9__gnu_cxx17__normal_iteratorIPKmSt6vectorImSaImEEEC2ERKS2_(ptr noundef nonnull align 8 dereferenceable(8) %retval, ptr noundef nonnull align 8 dereferenceable(8) %_M_finish) #3
  %coerce.dive = getelementptr inbounds %"class.__gnu_cxx::__normal_iterator.649", ptr %retval, i32 0, i32 0
  %0 = load ptr, ptr %coerce.dive, align 8
  ret ptr %0
}

; Function Attrs: mustprogress nounwind uwtable
define linkonce_odr ptr @_ZNKSt6vectorImSaImEE5beginEv(ptr noundef nonnull align 8 dereferenceable(24) %this) #1 comdat align 2 {
entry:
  %retval = alloca %"class.__gnu_cxx::__normal_iterator.649", align 8
  %this.addr = alloca ptr, align 8
  store ptr %this, ptr %this.addr, align 8
  %this1 = load ptr, ptr %this.addr, align 8
  %_M_impl = getelementptr inbounds %"struct.std::_Vector_base.48", ptr %this1, i32 0, i32 0
  %_M_start = getelementptr inbounds %"struct.std::_Vector_base<unsigned long, std::allocator<unsigned long>>::_Vector_impl_data", ptr %_M_impl, i32 0, i32 0
  call void @_ZN9__gnu_cxx17__normal_iteratorIPKmSt6vectorImSaImEEEC2ERKS2_(ptr noundef nonnull align 8 dereferenceable(8) %retval, ptr noundef nonnull align 8 dereferenceable(8) %_M_start) #3
  %coerce.dive = getelementptr inbounds %"class.__gnu_cxx::__normal_iterator.649", ptr %retval, i32 0, i32 0
  %0 = load ptr, ptr %coerce.dive, align 8
  ret ptr %0
}

; Function Attrs: mustprogress uwtable
define void @_ZN7rocksdb18WritePreparedTxnDB24CleanupReleasedSnapshotsERKSt6vectorImSaImEES5_(ptr noundef nonnull align 8 dereferenceable(1352) %this, ptr noundef nonnull align 8 dereferenceable(24) %new_snapshots, ptr noundef nonnull align 8 dereferenceable(24) %old_snapshots) #0 align 2 {
entry:
  %this.addr = alloca ptr, align 8
  %new_snapshots.addr = alloca ptr, align 8
  %old_snapshots.addr = alloca ptr, align 8
  %newi = alloca %"class.__gnu_cxx::__normal_iterator.649", align 8
  %oldi = alloca %"class.__gnu_cxx::__normal_iterator.649", align 8
  %ref.tmp = alloca %"class.__gnu_cxx::__normal_iterator.649", align 8
  %ref.tmp7 = alloca %"class.__gnu_cxx::__normal_iterator.649", align 8
  %value = alloca i64, align 8
  %ref.tmp14 = alloca %"class.__gnu_cxx::__normal_iterator.649", align 8
  %coerce = alloca %"class.__gnu_cxx::__normal_iterator.649", align 8
  %ref.tmp25 = alloca %"class.__gnu_cxx::__normal_iterator.649", align 8
  %coerce35 = alloca %"class.__gnu_cxx::__normal_iterator.649", align 8
  %coerce40 = alloca %"class.__gnu_cxx::__normal_iterator.649", align 8
  %ref.tmp43 = alloca %"class.__gnu_cxx::__normal_iterator.649", align 8
  %coerce50 = alloca %"class.__gnu_cxx::__normal_iterator.649", align 8
  store ptr %this, ptr %this.addr, align 8
  store ptr %new_snapshots, ptr %new_snapshots.addr, align 8
  store ptr %old_snapshots, ptr %old_snapshots.addr, align 8
  %this1 = load ptr, ptr %this.addr, align 8
  %0 = load ptr, ptr %new_snapshots.addr, align 8
  %call = call ptr @_ZNKSt6vectorImSaImEE5beginEv(ptr noundef nonnull align 8 dereferenceable(24) %0) #3
  %coerce.dive = getelementptr inbounds %"class.__gnu_cxx::__normal_iterator.649", ptr %newi, i32 0, i32 0
  store ptr %call, ptr %coerce.dive, align 8
  %1 = load ptr, ptr %old_snapshots.addr, align 8
  %call2 = call ptr @_ZNKSt6vectorImSaImEE5beginEv(ptr noundef nonnull align 8 dereferenceable(24) %1) #3
  %coerce.dive3 = getelementptr inbounds %"class.__gnu_cxx::__normal_iterator.649", ptr %oldi, i32 0, i32 0
  store ptr %call2, ptr %coerce.dive3, align 8
  br label %for.cond

for.cond:                                         ; preds = %if.end, %entry
  %2 = load ptr, ptr %new_snapshots.addr, align 8
  %call4 = call ptr @_ZNKSt6vectorImSaImEE3endEv(ptr noundef nonnull align 8 dereferenceable(24) %2) #3
  %coerce.dive5 = getelementptr inbounds %"class.__gnu_cxx::__normal_iterator.649", ptr %ref.tmp, i32 0, i32 0
  store ptr %call4, ptr %coerce.dive5, align 8
  %call6 = call noundef zeroext i1 @_ZN9__gnu_cxxneIPKmSt6vectorImSaImEEEEbRKNS_17__normal_iteratorIT_T0_EESB_(ptr noundef nonnull align 8 dereferenceable(8) %newi, ptr noundef nonnull align 8 dereferenceable(8) %ref.tmp) #3
  br i1 %call6, label %land.rhs, label %land.end

land.rhs:                                         ; preds = %for.cond
  %3 = load ptr, ptr %old_snapshots.addr, align 8
  %call8 = call ptr @_ZNKSt6vectorImSaImEE3endEv(ptr noundef nonnull align 8 dereferenceable(24) %3) #3
  %coerce.dive9 = getelementptr inbounds %"class.__gnu_cxx::__normal_iterator.649", ptr %ref.tmp7, i32 0, i32 0
  store ptr %call8, ptr %coerce.dive9, align 8
  %call10 = call noundef zeroext i1 @_ZN9__gnu_cxxneIPKmSt6vectorImSaImEEEEbRKNS_17__normal_iteratorIT_T0_EESB_(ptr noundef nonnull align 8 dereferenceable(8) %oldi, ptr noundef nonnull align 8 dereferenceable(8) %ref.tmp7) #3
  br label %land.end

land.end:                                         ; preds = %land.rhs, %for.cond
  %4 = phi i1 [ false, %for.cond ], [ %call10, %land.rhs ]
  br i1 %4, label %for.body, label %for.end

for.body:                                         ; preds = %land.end
  %call11 = call noundef nonnull align 8 dereferenceable(8) ptr @_ZNK9__gnu_cxx17__normal_iteratorIPKmSt6vectorImSaImEEEdeEv(ptr noundef nonnull align 8 dereferenceable(8) %newi) #3
  %5 = load i64, ptr %call11, align 8
  %call12 = call noundef nonnull align 8 dereferenceable(8) ptr @_ZNK9__gnu_cxx17__normal_iteratorIPKmSt6vectorImSaImEEEdeEv(ptr noundef nonnull align 8 dereferenceable(8) %oldi) #3
  %6 = load i64, ptr %call12, align 8
  %cmp = icmp eq i64 %5, %6
  br i1 %cmp, label %if.then, label %if.else

if.then:                                          ; preds = %for.body
  %call13 = call noundef nonnull align 8 dereferenceable(8) ptr @_ZNK9__gnu_cxx17__normal_iteratorIPKmSt6vectorImSaImEEEdeEv(ptr noundef nonnull align 8 dereferenceable(8) %newi) #3
  %7 = load i64, ptr %call13, align 8
  store i64 %7, ptr %value, align 8
  br label %while.cond

while.cond:                                       ; preds = %while.body, %if.then
  %8 = load ptr, ptr %new_snapshots.addr, align 8
  %call15 = call ptr @_ZNKSt6vectorImSaImEE3endEv(ptr noundef nonnull align 8 dereferenceable(24) %8) #3
  %coerce.dive16 = getelementptr inbounds %"class.__gnu_cxx::__normal_iterator.649", ptr %ref.tmp14, i32 0, i32 0
  store ptr %call15, ptr %coerce.dive16, align 8
  %call17 = call noundef zeroext i1 @_ZN9__gnu_cxxneIPKmSt6vectorImSaImEEEEbRKNS_17__normal_iteratorIT_T0_EESB_(ptr noundef nonnull align 8 dereferenceable(8) %newi, ptr noundef nonnull align 8 dereferenceable(8) %ref.tmp14) #3
  br i1 %call17, label %land.rhs18, label %land.end21

land.rhs18:                                       ; preds = %while.cond
  %call19 = call noundef nonnull align 8 dereferenceable(8) ptr @_ZNK9__gnu_cxx17__normal_iteratorIPKmSt6vectorImSaImEEEdeEv(ptr noundef nonnull align 8 dereferenceable(8) %newi) #3
  %9 = load i64, ptr %call19, align 8
  %10 = load i64, ptr %value, align 8
  %cmp20 = icmp eq i64 %9, %10
  br label %land.end21

land.end21:                                       ; preds = %land.rhs18, %while.cond
  %11 = phi i1 [ false, %while.cond ], [ %cmp20, %land.rhs18 ]
  br i1 %11, label %while.body, label %while.end

while.body:                                       ; preds = %land.end21
  %call22 = call ptr @_ZN9__gnu_cxx17__normal_iteratorIPKmSt6vectorImSaImEEEppEi(ptr noundef nonnull align 8 dereferenceable(8) %newi, i32 noundef 0) #3
  %coerce.dive23 = getelementptr inbounds %"class.__gnu_cxx::__normal_iterator.649", ptr %coerce, i32 0, i32 0
  store ptr %call22, ptr %coerce.dive23, align 8
  br label %while.cond, !llvm.loop !19

while.end:                                        ; preds = %land.end21
  br label %while.cond24

while.cond24:                                     ; preds = %while.body33, %while.end
  %12 = load ptr, ptr %old_snapshots.addr, align 8
  %call26 = call ptr @_ZNKSt6vectorImSaImEE3endEv(ptr noundef nonnull align 8 dereferenceable(24) %12) #3
  %coerce.dive27 = getelementptr inbounds %"class.__gnu_cxx::__normal_iterator.649", ptr %ref.tmp25, i32 0, i32 0
  store ptr %call26, ptr %coerce.dive27, align 8
  %call28 = call noundef zeroext i1 @_ZN9__gnu_cxxneIPKmSt6vectorImSaImEEEEbRKNS_17__normal_iteratorIT_T0_EESB_(ptr noundef nonnull align 8 dereferenceable(8) %oldi, ptr noundef nonnull align 8 dereferenceable(8) %ref.tmp25) #3
  br i1 %call28, label %land.rhs29, label %land.end32

land.rhs29:                                       ; preds = %while.cond24
  %call30 = call noundef nonnull align 8 dereferenceable(8) ptr @_ZNK9__gnu_cxx17__normal_iteratorIPKmSt6vectorImSaImEEEdeEv(ptr noundef nonnull align 8 dereferenceable(8) %oldi) #3
  %13 = load i64, ptr %call30, align 8
  %14 = load i64, ptr %value, align 8
  %cmp31 = icmp eq i64 %13, %14
  br label %land.end32

land.end32:                                       ; preds = %land.rhs29, %while.cond24
  %15 = phi i1 [ false, %while.cond24 ], [ %cmp31, %land.rhs29 ]
  br i1 %15, label %while.body33, label %while.end37

while.body33:                                     ; preds = %land.end32
  %call34 = call ptr @_ZN9__gnu_cxx17__normal_iteratorIPKmSt6vectorImSaImEEEppEi(ptr noundef nonnull align 8 dereferenceable(8) %oldi, i32 noundef 0) #3
  %coerce.dive36 = getelementptr inbounds %"class.__gnu_cxx::__normal_iterator.649", ptr %coerce35, i32 0, i32 0
  store ptr %call34, ptr %coerce.dive36, align 8
  br label %while.cond24, !llvm.loop !20

while.end37:                                      ; preds = %land.end32
  br label %if.end

if.else:                                          ; preds = %for.body
  %call38 = call noundef nonnull align 8 dereferenceable(8) ptr @_ZNK9__gnu_cxx17__normal_iteratorIPKmSt6vectorImSaImEEEdeEv(ptr noundef nonnull align 8 dereferenceable(8) %oldi) #3
  %16 = load i64, ptr %call38, align 8
  call void @_ZN7rocksdb18WritePreparedTxnDB23ReleaseSnapshotInternalEm(ptr noundef nonnull align 8 dereferenceable(1352) %this1, i64 noundef %16)
  %call39 = call ptr @_ZN9__gnu_cxx17__normal_iteratorIPKmSt6vectorImSaImEEEppEi(ptr noundef nonnull align 8 dereferenceable(8) %oldi, i32 noundef 0) #3
  %coerce.dive41 = getelementptr inbounds %"class.__gnu_cxx::__normal_iterator.649", ptr %coerce40, i32 0, i32 0
  store ptr %call39, ptr %coerce.dive41, align 8
  br label %if.end

if.end:                                           ; preds = %if.else, %while.end37
  br label %for.cond, !llvm.loop !21

for.end:                                          ; preds = %land.end
  br label %for.cond42

for.cond42:                                       ; preds = %for.inc, %for.end
  %17 = load ptr, ptr %old_snapshots.addr, align 8
  %call44 = call ptr @_ZNKSt6vectorImSaImEE3endEv(ptr noundef nonnull align 8 dereferenceable(24) %17) #3
  %coerce.dive45 = getelementptr inbounds %"class.__gnu_cxx::__normal_iterator.649", ptr %ref.tmp43, i32 0, i32 0
  store ptr %call44, ptr %coerce.dive45, align 8
  %call46 = call noundef zeroext i1 @_ZN9__gnu_cxxneIPKmSt6vectorImSaImEEEEbRKNS_17__normal_iteratorIT_T0_EESB_(ptr noundef nonnull align 8 dereferenceable(8) %oldi, ptr noundef nonnull align 8 dereferenceable(8) %ref.tmp43) #3
  br i1 %call46, label %for.body47, label %for.end52

for.body47:                                       ; preds = %for.cond42
  %call48 = call noundef nonnull align 8 dereferenceable(8) ptr @_ZNK9__gnu_cxx17__normal_iteratorIPKmSt6vectorImSaImEEEdeEv(ptr noundef nonnull align 8 dereferenceable(8) %oldi) #3
  %18 = load i64, ptr %call48, align 8
  call void @_ZN7rocksdb18WritePreparedTxnDB23ReleaseSnapshotInternalEm(ptr noundef nonnull align 8 dereferenceable(1352) %this1, i64 noundef %18)
  br label %for.inc

for.inc:                                          ; preds = %for.body47
  %call49 = call ptr @_ZN9__gnu_cxx17__normal_iteratorIPKmSt6vectorImSaImEEEppEi(ptr noundef nonnull align 8 dereferenceable(8) %oldi, i32 noundef 0) #3
  %coerce.dive51 = getelementptr inbounds %"class.__gnu_cxx::__normal_iterator.649", ptr %coerce50, i32 0, i32 0
  store ptr %call49, ptr %coerce.dive51, align 8
  br label %for.cond42, !llvm.loop !22

for.end52:                                        ; preds = %for.cond42
  ret void
}