; Function Attrs: mustprogress uwtable
define void @_ZN7rocksdb18WritePreparedTxnDB24CleanupReleasedSnapshotsERKSt6vectorImSaImEES5_(ptr noundef nonnull align 8 dereferenceable(1352) %this, ptr nocapture noundef nonnull readonly align 8 dereferenceable(24) %new_snapshots, ptr nocapture noundef nonnull readonly align 8 dereferenceable(24) %old_snapshots) local_unnamed_addr #2 align 2 {
entry:
  %0 = load ptr, ptr %new_snapshots, align 8
  %1 = load ptr, ptr %old_snapshots, align 8
  %_M_finish.i7 = getelementptr inbounds i8, ptr %old_snapshots, i64 8
  %_M_finish.i = getelementptr inbounds i8, ptr %new_snapshots, i64 8
  %2 = load ptr, ptr %_M_finish.i, align 8
  %cmp.i.not39 = icmp eq ptr %0, %2
  br i1 %cmp.i.not39, label %for.end, label %land.rhs

land.rhs:                                         ; preds = %entry, %if.end
  %3 = phi ptr [ %9, %if.end ], [ %2, %entry ]
  %newi.sroa.0.041 = phi ptr [ %newi.sroa.0.2, %if.end ], [ %0, %entry ]
  %oldi.sroa.0.040 = phi ptr [ %oldi.sroa.0.2, %if.end ], [ %1, %entry ]
  %4 = load ptr, ptr %_M_finish.i7, align 8
  %cmp.i8.not = icmp eq ptr %oldi.sroa.0.040, %4
  br i1 %cmp.i8.not, label %for.end, label %for.body

for.body:                                         ; preds = %land.rhs
  %5 = load i64, ptr %newi.sroa.0.041, align 8
  %6 = load i64, ptr %oldi.sroa.0.040, align 8
  %cmp = icmp eq i64 %5, %6
  br i1 %cmp, label %while.cond.preheader, label %if.else

while.cond.preheader:                             ; preds = %for.body
  %cmp.i10.not32 = icmp eq ptr %newi.sroa.0.041, %3
  br i1 %cmp.i10.not32, label %land.rhs29.preheader, label %land.rhs18

land.rhs18:                                       ; preds = %while.cond.preheader, %while.body
  %newi.sroa.0.133 = phi ptr [ %incdec.ptr.i, %while.body ], [ %newi.sroa.0.041, %while.cond.preheader ]
  %7 = load i64, ptr %newi.sroa.0.133, align 8
  %cmp20 = icmp eq i64 %7, %5
  br i1 %cmp20, label %while.body, label %land.rhs29.preheader

while.body:                                       ; preds = %land.rhs18
  %incdec.ptr.i = getelementptr inbounds i8, ptr %newi.sroa.0.133, i64 8
  %cmp.i10.not = icmp eq ptr %incdec.ptr.i, %3
  br i1 %cmp.i10.not, label %land.rhs29.preheader, label %land.rhs18, !llvm.loop !59

land.rhs29.preheader:                             ; preds = %while.body, %land.rhs18, %while.cond.preheader
  %newi.sroa.0.1.lcssa = phi ptr [ %3, %while.cond.preheader ], [ %3, %while.body ], [ %newi.sroa.0.133, %land.rhs18 ]
  br label %land.rhs29

land.rhs29:                                       ; preds = %land.rhs29.preheader, %while.body33
  %oldi.sroa.0.136 = phi ptr [ %incdec.ptr.i13, %while.body33 ], [ %oldi.sroa.0.040, %land.rhs29.preheader ]
  %8 = load i64, ptr %oldi.sroa.0.136, align 8
  %cmp31 = icmp eq i64 %8, %5
  br i1 %cmp31, label %while.body33, label %if.end

while.body33:                                     ; preds = %land.rhs29
  %incdec.ptr.i13 = getelementptr inbounds i8, ptr %oldi.sroa.0.136, i64 8
  %cmp.i12.not = icmp eq ptr %incdec.ptr.i13, %4
  br i1 %cmp.i12.not, label %if.end, label %land.rhs29, !llvm.loop !60

if.else:                                          ; preds = %for.body
  tail call void @_ZN7rocksdb18WritePreparedTxnDB23ReleaseSnapshotInternalEm(ptr noundef nonnull align 8 dereferenceable(1352) %this, i64 noundef %6)
  %incdec.ptr.i14 = getelementptr inbounds i8, ptr %oldi.sroa.0.040, i64 8
  %.pre = load ptr, ptr %_M_finish.i, align 8
  br label %if.end

if.end:                                           ; preds = %while.body33, %land.rhs29, %if.else
  %9 = phi ptr [ %.pre, %if.else ], [ %3, %land.rhs29 ], [ %3, %while.body33 ]
  %oldi.sroa.0.2 = phi ptr [ %incdec.ptr.i14, %if.else ], [ %4, %while.body33 ], [ %oldi.sroa.0.136, %land.rhs29 ]
  %newi.sroa.0.2 = phi ptr [ %newi.sroa.0.041, %if.else ], [ %newi.sroa.0.1.lcssa, %land.rhs29 ], [ %newi.sroa.0.1.lcssa, %while.body33 ]
  %cmp.i.not = icmp eq ptr %newi.sroa.0.2, %9
  br i1 %cmp.i.not, label %for.end, label %land.rhs, !llvm.loop !61

for.end:                                          ; preds = %land.rhs, %if.end, %entry
  %oldi.sroa.0.0.lcssa = phi ptr [ %1, %entry ], [ %oldi.sroa.0.2, %if.end ], [ %oldi.sroa.0.040, %land.rhs ]
  %10 = load ptr, ptr %_M_finish.i7, align 8
  %cmp.i16.not44 = icmp eq ptr %oldi.sroa.0.0.lcssa, %10
  br i1 %cmp.i16.not44, label %for.end52, label %for.body47

for.body47:                                       ; preds = %for.end, %for.body47
  %oldi.sroa.0.345 = phi ptr [ %incdec.ptr.i17, %for.body47 ], [ %oldi.sroa.0.0.lcssa, %for.end ]
  %11 = load i64, ptr %oldi.sroa.0.345, align 8
  tail call void @_ZN7rocksdb18WritePreparedTxnDB23ReleaseSnapshotInternalEm(ptr noundef nonnull align 8 dereferenceable(1352) %this, i64 noundef %11)
  %incdec.ptr.i17 = getelementptr inbounds i8, ptr %oldi.sroa.0.345, i64 8
  %12 = load ptr, ptr %_M_finish.i7, align 8
  %cmp.i16.not = icmp eq ptr %incdec.ptr.i17, %12
  br i1 %cmp.i16.not, label %for.end52, label %for.body47, !llvm.loop !62

for.end52:                                        ; preds = %for.body47, %for.end
  ret void
}